; Function Attrs: nounwind uwtable
define dso_local void @strvec_split(ptr noundef captures(none) %0, ptr noundef %1) local_unnamed_addr #3 {
  br label %3

3:                                                ; preds = %3, %2
  %.015 = phi ptr [ %1, %2 ], [ %9, %3 ]
  %4 = load i8, ptr %.015, align 1, !tbaa !20
  %5 = zext i8 %4 to i64
  %6 = getelementptr inbounds nuw [256 x i8], ptr @sane_ctype, i64 0, i64 %5
  %7 = load i8, ptr %6, align 1, !tbaa !20
  %8 = and i8 %7, 1
  %.not = icmp eq i8 %8, 0
  %9 = getelementptr inbounds nuw i8, ptr %.015, i64 1
  br i1 %.not, label %.preheader24, label %3, !llvm.loop !21

.preheader24:                                     ; preds = %3
  %.not1726 = icmp eq i8 %4, 0
  br i1 %.not1726, label %._crit_edge, label %.preheader.lr.ph

.preheader.lr.ph:                                 ; preds = %.preheader24
  %10 = getelementptr inbounds nuw i8, ptr %0, i64 8
  %11 = getelementptr inbounds nuw i8, ptr %0, i64 16
  br label %.preheader

.loopexit:                                        ; preds = %47
  %.not17 = icmp eq i8 %48, 0
  br i1 %.not17, label %._crit_edge, label %.preheader

.preheader:                                       ; preds = %.preheader.lr.ph, %.loopexit
  %12 = phi i8 [ %4, %.preheader.lr.ph ], [ %48, %.loopexit ]
  %.11627 = phi ptr [ %.015, %.preheader.lr.ph ], [ %.1, %.loopexit ]
  br label %13

13:                                               ; preds = %.preheader, %19
  %.01425 = phi ptr [ %.11627, %.preheader ], [ %20, %19 ]
  %14 = phi i8 [ %12, %.preheader ], [ %.pr, %19 ]
  %15 = zext i8 %14 to i64
  %16 = getelementptr inbounds nuw [256 x i8], ptr @sane_ctype, i64 0, i64 %15
  %17 = load i8, ptr %16, align 1, !tbaa !20
  %18 = and i8 %17, 1
  %.not19 = icmp eq i8 %18, 0
  br i1 %.not19, label %19, label %.critedge

19:                                               ; preds = %13
  %20 = getelementptr inbounds nuw i8, ptr %.01425, i64 1
  %.pr = load i8, ptr %20, align 1, !tbaa !20
  %.not18 = icmp eq i8 %.pr, 0
  br i1 %.not18, label %.critedge, label %13, !llvm.loop !22

.critedge:                                        ; preds = %19, %13
  %.014.lcssa = phi ptr [ %20, %19 ], [ %.01425, %13 ]
  %21 = ptrtoint ptr %.014.lcssa to i64
  %22 = ptrtoint ptr %.11627 to i64
  %23 = sub i64 %21, %22
  %24 = tail call ptr @xstrndup(ptr noundef nonnull %.11627, i64 noundef %23) #11
  %25 = load ptr, ptr %0, align 8, !tbaa !4
  %26 = icmp eq ptr %25, @empty_strvec
  br i1 %26, label %27, label %28

27:                                               ; preds = %.critedge
  store ptr null, ptr %0, align 8, !tbaa !4
  br label %28

28:                                               ; preds = %27, %.critedge
  %29 = phi ptr [ %25, %.critedge ], [ null, %27 ]
  %30 = load i64, ptr %10, align 8, !tbaa !11
  %31 = add i64 %30, 2
  %32 = load i64, ptr %11, align 8, !tbaa !12
  %33 = icmp ugt i64 %31, %32
  br i1 %33, label %34, label %strvec_push_nodup.exit

34:                                               ; preds = %28
  %35 = mul i64 %32, 3
  %36 = add i64 %35, 48
  %37 = lshr i64 %36, 1
  %..i = tail call i64 @llvm.umax.i64(i64 %37, i64 %31)
  store i64 %..i, ptr %11, align 8, !tbaa !12
  %38 = icmp ugt i64 %..i, 2305843009213693951
  br i1 %38, label %39, label %st_mult.exit.i

39:                                               ; preds = %34
  tail call void (ptr, ...) @die(ptr noundef nonnull @.str.3, i64 noundef 8, i64 noundef %..i) #10
  unreachable

st_mult.exit.i:                                   ; preds = %34
  %40 = shl nuw i64 %..i, 3
  %41 = tail call ptr @xrealloc(ptr noundef %29, i64 noundef %40) #11
  store ptr %41, ptr %0, align 8, !tbaa !4
  %.pre.i = load i64, ptr %10, align 8, !tbaa !11
  br label %strvec_push_nodup.exit

strvec_push_nodup.exit:                           ; preds = %28, %st_mult.exit.i
  %42 = phi i64 [ %30, %28 ], [ %.pre.i, %st_mult.exit.i ]
  %43 = phi ptr [ %29, %28 ], [ %41, %st_mult.exit.i ]
  %44 = add i64 %42, 1
  store i64 %44, ptr %10, align 8, !tbaa !11
  %45 = getelementptr inbounds nuw ptr, ptr %43, i64 %42
  store ptr %24, ptr %45, align 8, !tbaa !13
  %46 = getelementptr inbounds nuw ptr, ptr %43, i64 %44
  store ptr null, ptr %46, align 8, !tbaa !13
  br label %47

47:                                               ; preds = %47, %strvec_push_nodup.exit
  %.1 = phi ptr [ %.014.lcssa, %strvec_push_nodup.exit ], [ %53, %47 ]
  %48 = load i8, ptr %.1, align 1, !tbaa !20
  %49 = zext i8 %48 to i64
  %50 = getelementptr inbounds nuw [256 x i8], ptr @sane_ctype, i64 0, i64 %49
  %51 = load i8, ptr %50, align 1, !tbaa !20
  %52 = and i8 %51, 1
  %.not20 = icmp eq i8 %52, 0
  %53 = getelementptr inbounds nuw i8, ptr %.1, i64 1
  br i1 %.not20, label %.loopexit, label %47, !llvm.loop !23

._crit_edge:                                      ; preds = %.loopexit, %.preheader24
  ret void
}